target datalayout = "e-m:e-p270:32:32-p271:32:32-p272:64:64-i64:64-i128:128-f80:128-n8:16:32:64-S128"
target triple = "x86_64-pc-linux-gnu"

%struct.rfile = type { ptr, i32, i64, i32, ptr, i32, i32, i64 }

@.str.10 = private unnamed_addr constant [65 x i8] c"file \22%s\22 has bad incremental magic number (0x%x, expected 0x%x)\00", align 1
@.str.11 = private unnamed_addr constant [58 x i8] c"file \22%s\22 has block count %u in excess of segment size %u\00", align 1
@.str.12 = private unnamed_addr constant [70 x i8] c"file \22%s\22 has truncation block length %u in excess of segment size %u\00", align 1
@.str.13 = private unnamed_addr constant [29 x i8] c"could not read file \22%s\22: %m\00", align 1
@.str.14 = private unnamed_addr constant [40 x i8] c"could not read file \22%s\22: read %d of %u\00", align 1
@.str.15 = private unnamed_addr constant [29 x i8] c"could not open file \22%s\22: %m\00", align 1

; Function Attrs: nounwind uwtable
define internal void @read_bytes(ptr noundef %0, ptr noundef %1, i32 noundef %2) #0 {
  %4 = alloca ptr, align 8
  %5 = alloca ptr, align 8
  %6 = alloca i32, align 4
  %7 = alloca i32, align 4
  store ptr %0, ptr %4, align 8
  store ptr %1, ptr %5, align 8
  store i32 %2, ptr %6, align 4
  call void @llvm.lifetime.start.p0(i64 4, ptr %7) #9
  %8 = load ptr, ptr %4, align 8
  %9 = getelementptr inbounds nuw %struct.rfile, ptr %8, i32 0, i32 1
  %10 = load i32, ptr %9, align 8
  %11 = load ptr, ptr %5, align 8
  %12 = load i32, ptr %6, align 4
  %13 = zext i32 %12 to i64
  %14 = call i64 @read(i32 noundef %10, ptr noundef %11, i64 noundef %13)
  %15 = trunc i64 %14 to i32
  store i32 %15, ptr %7, align 4
  %16 = load i32, ptr %7, align 4
  %17 = load i32, ptr %6, align 4
  %18 = icmp ne i32 %16, %17
  br i1 %18, label %19, label %39

19:                                               ; preds = %3
  %20 = load i32, ptr %7, align 4
  %21 = icmp slt i32 %20, 0
  br i1 %21, label %22, label %29

22:                                               ; preds = %19
  br label %23

23:                                               ; preds = %22
  %24 = load ptr, ptr %4, align 8
  %25 = getelementptr inbounds nuw %struct.rfile, ptr %24, i32 0, i32 0
  %26 = load ptr, ptr %25, align 8
  call void (i32, i32, ptr, ...) @pg_log_generic(i32 noundef 4, i32 noundef 0, ptr noundef @.str.13, ptr noundef %26)
  call void @exit(i32 noundef 1) #10
  unreachable

27:                                               ; No predecessors!
  br label %28

28:                                               ; preds = %27
  br label %38

29:                                               ; preds = %19
  br label %30

30:                                               ; preds = %29
  %31 = load ptr, ptr %4, align 8
  %32 = getelementptr inbounds nuw %struct.rfile, ptr %31, i32 0, i32 0
  %33 = load ptr, ptr %32, align 8
  %34 = load i32, ptr %7, align 4
  %35 = load i32, ptr %6, align 4
  call void (i32, i32, ptr, ...) @pg_log_generic(i32 noundef 4, i32 noundef 0, ptr noundef @.str.14, ptr noundef %33, i32 noundef %34, i32 noundef %35)
  call void @exit(i32 noundef 1) #10
  unreachable

36:                                               ; No predecessors!
  br label %37

37:                                               ; preds = %36
  br label %38

38:                                               ; preds = %37, %28
  br label %39

39:                                               ; preds = %38, %3
  call void @llvm.lifetime.end.p0(i64 4, ptr %7) #9
  ret void
}

; Function Attrs: nounwind uwtable
define internal ptr @make_rfile(ptr noundef %0, i1 noundef zeroext %1) #0 {
  %3 = alloca ptr, align 8
  %4 = alloca ptr, align 8
  %5 = alloca i8, align 1
  %6 = alloca ptr, align 8
  %7 = alloca i32, align 4
  store ptr %0, ptr %4, align 8
  %8 = zext i1 %1 to i8
  store i8 %8, ptr %5, align 1
  call void @llvm.lifetime.start.p0(i64 8, ptr %6) #9
  %9 = call ptr @pg_malloc0(i64 noundef 56)
  store ptr %9, ptr %6, align 8
  %10 = load ptr, ptr %4, align 8
  %11 = call ptr @pstrdup(ptr noundef %10)
  %12 = load ptr, ptr %6, align 8
  %13 = getelementptr inbounds nuw %struct.rfile, ptr %12, i32 0, i32 0
  store ptr %11, ptr %13, align 8
  %14 = load ptr, ptr %4, align 8
  %15 = call i32 (ptr, i32, ...) @open(ptr noundef %14, i32 noundef 0, i32 noundef 0)
  %16 = load ptr, ptr %6, align 8
  %17 = getelementptr inbounds nuw %struct.rfile, ptr %16, i32 0, i32 1
  store i32 %15, ptr %17, align 8
  %18 = icmp slt i32 %15, 0
  br i1 %18, label %19, label %33

19:                                               ; preds = %2
  %20 = load i8, ptr %5, align 1, !range !7, !noundef !8
  %21 = trunc i8 %20 to i1
  br i1 %21, label %22, label %28

22:                                               ; preds = %19
  %23 = call ptr @__errno_location() #11
  %24 = load i32, ptr %23, align 4
  %25 = icmp eq i32 %24, 2
  br i1 %25, label %26, label %28

26:                                               ; preds = %22
  %27 = load ptr, ptr %6, align 8
  call void @pg_free(ptr noundef %27)
  store ptr null, ptr %3, align 8
  store i32 1, ptr %7, align 4
  br label %35

28:                                               ; preds = %22, %19
  br label %29

29:                                               ; preds = %28
  %30 = load ptr, ptr %4, align 8
  call void (i32, i32, ptr, ...) @pg_log_generic(i32 noundef 4, i32 noundef 0, ptr noundef @.str.15, ptr noundef %30)
  call void @exit(i32 noundef 1) #10
  unreachable

31:                                               ; No predecessors!
  br label %32

32:                                               ; preds = %31
  br label %33

33:                                               ; preds = %32, %2
  %34 = load ptr, ptr %6, align 8
  store ptr %34, ptr %3, align 8
  store i32 1, ptr %7, align 4
  br label %35

35:                                               ; preds = %33, %26
  call void @llvm.lifetime.end.p0(i64 8, ptr %6) #9
  %36 = load ptr, ptr %3, align 8
  ret ptr %36
}

; Function Attrs: nounwind uwtable
define internal ptr @make_incremental_rfile(ptr noundef %0) #0 {
  %2 = alloca ptr, align 8
  %3 = alloca ptr, align 8
  %4 = alloca i32, align 4
  store ptr %0, ptr %2, align 8
  call void @llvm.lifetime.start.p0(i64 8, ptr %3) #9
  call void @llvm.lifetime.start.p0(i64 4, ptr %4) #9
  %5 = load ptr, ptr %2, align 8
  %6 = call ptr @make_rfile(ptr noundef %5, i1 noundef zeroext false)
  store ptr %6, ptr %3, align 8
  %7 = load ptr, ptr %3, align 8
  call void @read_bytes(ptr noundef %7, ptr noundef %4, i32 noundef 4)
  %8 = load i32, ptr %4, align 4
  %9 = icmp ne i32 %8, -743563507
  br i1 %9, label %10, label %16

10:                                               ; preds = %1
  br label %11

11:                                               ; preds = %10
  %12 = load ptr, ptr %2, align 8
  %13 = load i32, ptr %4, align 4
  call void (i32, i32, ptr, ...) @pg_log_generic(i32 noundef 4, i32 noundef 0, ptr noundef @.str.10, ptr noundef %12, i32 noundef %13, i32 noundef -743563507)
  call void @exit(i32 noundef 1) #10
  unreachable

14:                                               ; No predecessors!
  br label %15

15:                                               ; preds = %14
  br label %16

16:                                               ; preds = %15, %1
  %17 = load ptr, ptr %3, align 8
  %18 = load ptr, ptr %3, align 8
  %19 = getelementptr inbounds nuw %struct.rfile, ptr %18, i32 0, i32 3
  call void @read_bytes(ptr noundef %17, ptr noundef %19, i32 noundef 4)
  %20 = load ptr, ptr %3, align 8
  %21 = getelementptr inbounds nuw %struct.rfile, ptr %20, i32 0, i32 3
  %22 = load i32, ptr %21, align 8
  %23 = icmp ugt i32 %22, 131072
  br i1 %23, label %24, label %32

24:                                               ; preds = %16
  br label %25

25:                                               ; preds = %24
  %26 = load ptr, ptr %2, align 8
  %27 = load ptr, ptr %3, align 8
  %28 = getelementptr inbounds nuw %struct.rfile, ptr %27, i32 0, i32 3
  %29 = load i32, ptr %28, align 8
  call void (i32, i32, ptr, ...) @pg_log_generic(i32 noundef 4, i32 noundef 0, ptr noundef @.str.11, ptr noundef %26, i32 noundef %29, i32 noundef 131072)
  call void @exit(i32 noundef 1) #10
  unreachable

30:                                               ; No predecessors!
  br label %31

31:                                               ; preds = %30
  br label %32

32:                                               ; preds = %31, %16
  %33 = load ptr, ptr %3, align 8
  %34 = load ptr, ptr %3, align 8
  %35 = getelementptr inbounds nuw %struct.rfile, ptr %34, i32 0, i32 5
  call void @read_bytes(ptr noundef %33, ptr noundef %35, i32 noundef 4)
  %36 = load ptr, ptr %3, align 8
  %37 = getelementptr inbounds nuw %struct.rfile, ptr %36, i32 0, i32 5
  %38 = load i32, ptr %37, align 8
  %39 = icmp ugt i32 %38, 131072
  br i1 %39, label %40, label %48

40:                                               ; preds = %32
  br label %41

41:                                               ; preds = %40
  %42 = load ptr, ptr %2, align 8
  %43 = load ptr, ptr %3, align 8
  %44 = getelementptr inbounds nuw %struct.rfile, ptr %43, i32 0, i32 5
  %45 = load i32, ptr %44, align 8
  call void (i32, i32, ptr, ...) @pg_log_generic(i32 noundef 4, i32 noundef 0, ptr noundef @.str.12, ptr noundef %42, i32 noundef %45, i32 noundef 131072)
  call void @exit(i32 noundef 1) #10
  unreachable

46:                                               ; No predecessors!
  br label %47

47:                                               ; preds = %46
  br label %48

48:                                               ; preds = %47, %32
  %49 = load ptr, ptr %3, align 8
  %50 = getelementptr inbounds nuw %struct.rfile, ptr %49, i32 0, i32 3
  %51 = load i32, ptr %50, align 8
  %52 = icmp ugt i32 %51, 0
  br i1 %52, label %53, label %72

53:                                               ; preds = %48
  %54 = load ptr, ptr %3, align 8
  %55 = getelementptr inbounds nuw %struct.rfile, ptr %54, i32 0, i32 3
  %56 = load i32, ptr %55, align 8
  %57 = zext i32 %56 to i64
  %58 = mul i64 4, %57
  %59 = call ptr @pg_malloc0(i64 noundef %58)
  %60 = load ptr, ptr %3, align 8
  %61 = getelementptr inbounds nuw %struct.rfile, ptr %60, i32 0, i32 4
  store ptr %59, ptr %61, align 8
  %62 = load ptr, ptr %3, align 8
  %63 = load ptr, ptr %3, align 8
  %64 = getelementptr inbounds nuw %struct.rfile, ptr %63, i32 0, i32 4
  %65 = load ptr, ptr %64, align 8
  %66 = load ptr, ptr %3, align 8
  %67 = getelementptr inbounds nuw %struct.rfile, ptr %66, i32 0, i32 3
  %68 = load i32, ptr %67, align 8
  %69 = zext i32 %68 to i64
  %70 = mul i64 4, %69
  %71 = trunc i64 %70 to i32
  call void @read_bytes(ptr noundef %62, ptr noundef %65, i32 noundef %71)
  br label %72

72:                                               ; preds = %53, %48
  %73 = load ptr, ptr %3, align 8
  %74 = getelementptr inbounds nuw %struct.rfile, ptr %73, i32 0, i32 3
  %75 = load i32, ptr %74, align 8
  %76 = zext i32 %75 to i64
  %77 = mul i64 4, %76
  %78 = add i64 12, %77
  %79 = load ptr, ptr %3, align 8
  %80 = getelementptr inbounds nuw %struct.rfile, ptr %79, i32 0, i32 2
  store i64 %78, ptr %80, align 8
  %81 = load ptr, ptr %3, align 8
  %82 = getelementptr inbounds nuw %struct.rfile, ptr %81, i32 0, i32 3
  %83 = load i32, ptr %82, align 8
  %84 = icmp ugt i32 %83, 0
  br i1 %84, label %85, label %101

85:                                               ; preds = %72
  %86 = load ptr, ptr %3, align 8
  %87 = getelementptr inbounds nuw %struct.rfile, ptr %86, i32 0, i32 2
  %88 = load i64, ptr %87, align 8
  %89 = urem i64 %88, 8192
  %90 = icmp ne i64 %89, 0
  br i1 %90, label %91, label %101

91:                                               ; preds = %85
  %92 = load ptr, ptr %3, align 8
  %93 = getelementptr inbounds nuw %struct.rfile, ptr %92, i32 0, i32 2
  %94 = load i64, ptr %93, align 8
  %95 = urem i64 %94, 8192
  %96 = sub i64 8192, %95
  %97 = load ptr, ptr %3, align 8
  %98 = getelementptr inbounds nuw %struct.rfile, ptr %97, i32 0, i32 2
  %99 = load i64, ptr %98, align 8
  %100 = add i64 %99, %96
  store i64 %100, ptr %98, align 8
  br label %101

101:                                              ; preds = %91, %85, %72
  %102 = load ptr, ptr %3, align 8
  call void @llvm.lifetime.end.p0(i64 4, ptr %4) #9
  call void @llvm.lifetime.end.p0(i64 8, ptr %3) #9
  ret ptr %102
}