; Function Attrs: nounwind uwtable
define internal fastcc ptr @make_incremental_rfile(ptr noundef %0) unnamed_addr #0 {
  %2 = alloca i32, align 4
  call void @llvm.lifetime.start.p0(i64 4, ptr nonnull %2) #10
  %3 = tail call ptr @pg_malloc0(i64 noundef 56) #10
  %4 = tail call ptr @pstrdup(ptr noundef %0) #10
  store ptr %4, ptr %3, align 8
  %5 = tail call i32 (ptr, i32, ...) @open(ptr noundef %0, i32 noundef 0, i32 noundef 0) #10
  %6 = getelementptr inbounds nuw i8, ptr %3, i64 8
  store i32 %5, ptr %6, align 8
  %7 = icmp slt i32 %5, 0
  br i1 %7, label %8, label %make_rfile.exit

8:                                                ; preds = %1
  tail call void (i32, i32, ptr, ...) @pg_log_generic(i32 noundef 4, i32 noundef 0, ptr noundef nonnull @.str.15, ptr noundef %0) #10
  tail call void @exit(i32 noundef 1) #12
  unreachable

make_rfile.exit:                                  ; preds = %1
  %9 = call i64 @read(i32 noundef %5, ptr noundef nonnull %2, i64 noundef 4) #10
  %10 = trunc i64 %9 to i32
  %.not.i = icmp eq i32 %10, 4
  br i1 %.not.i, label %read_bytes.exit, label %11

11:                                               ; preds = %make_rfile.exit
  %12 = icmp slt i32 %10, 0
  %13 = load ptr, ptr %3, align 8
  br i1 %12, label %14, label %15

14:                                               ; preds = %11
  tail call void (i32, i32, ptr, ...) @pg_log_generic(i32 noundef 4, i32 noundef 0, ptr noundef nonnull @.str.13, ptr noundef %13) #10
  tail call void @exit(i32 noundef 1) #12
  unreachable

15:                                               ; preds = %11
  tail call void (i32, i32, ptr, ...) @pg_log_generic(i32 noundef 4, i32 noundef 0, ptr noundef nonnull @.str.14, ptr noundef %13, i32 noundef %10, i32 noundef 4) #10
  tail call void @exit(i32 noundef 1) #12
  unreachable

read_bytes.exit:                                  ; preds = %make_rfile.exit
  %16 = load i32, ptr %2, align 4
  %.not = icmp eq i32 %16, -743563507
  br i1 %.not, label %18, label %17

17:                                               ; preds = %read_bytes.exit
  tail call void (i32, i32, ptr, ...) @pg_log_generic(i32 noundef 4, i32 noundef 0, ptr noundef nonnull @.str.10, ptr noundef %0, i32 noundef %16, i32 noundef -743563507) #10
  tail call void @exit(i32 noundef 1) #12
  unreachable

18:                                               ; preds = %read_bytes.exit
  %19 = getelementptr inbounds nuw i8, ptr %3, i64 24
  %20 = load i32, ptr %6, align 8
  %21 = tail call i64 @read(i32 noundef %20, ptr noundef nonnull %19, i64 noundef 4) #10
  %22 = trunc i64 %21 to i32
  %.not.i33 = icmp eq i32 %22, 4
  br i1 %.not.i33, label %read_bytes.exit34, label %23

23:                                               ; preds = %18
  %24 = icmp slt i32 %22, 0
  %25 = load ptr, ptr %3, align 8
  br i1 %24, label %26, label %27

26:                                               ; preds = %23
  tail call void (i32, i32, ptr, ...) @pg_log_generic(i32 noundef 4, i32 noundef 0, ptr noundef nonnull @.str.13, ptr noundef %25) #10
  tail call void @exit(i32 noundef 1) #12
  unreachable

27:                                               ; preds = %23
  tail call void (i32, i32, ptr, ...) @pg_log_generic(i32 noundef 4, i32 noundef 0, ptr noundef nonnull @.str.14, ptr noundef %25, i32 noundef %22, i32 noundef 4) #10
  tail call void @exit(i32 noundef 1) #12
  unreachable

read_bytes.exit34:                                ; preds = %18
  %28 = load i32, ptr %19, align 8
  %29 = icmp ugt i32 %28, 131072
  br i1 %29, label %30, label %31

30:                                               ; preds = %read_bytes.exit34
  tail call void (i32, i32, ptr, ...) @pg_log_generic(i32 noundef 4, i32 noundef 0, ptr noundef nonnull @.str.11, ptr noundef %0, i32 noundef %28, i32 noundef 131072) #10
  tail call void @exit(i32 noundef 1) #12
  unreachable

31:                                               ; preds = %read_bytes.exit34
  %32 = getelementptr inbounds nuw i8, ptr %3, i64 40
  %33 = load i32, ptr %6, align 8
  %34 = tail call i64 @read(i32 noundef %33, ptr noundef nonnull %32, i64 noundef 4) #10
  %35 = trunc i64 %34 to i32
  %.not.i35 = icmp eq i32 %35, 4
  br i1 %.not.i35, label %read_bytes.exit36, label %36

36:                                               ; preds = %31
  %37 = icmp slt i32 %35, 0
  %38 = load ptr, ptr %3, align 8
  br i1 %37, label %39, label %40

39:                                               ; preds = %36
  tail call void (i32, i32, ptr, ...) @pg_log_generic(i32 noundef 4, i32 noundef 0, ptr noundef nonnull @.str.13, ptr noundef %38) #10
  tail call void @exit(i32 noundef 1) #12
  unreachable

40:                                               ; preds = %36
  tail call void (i32, i32, ptr, ...) @pg_log_generic(i32 noundef 4, i32 noundef 0, ptr noundef nonnull @.str.14, ptr noundef %38, i32 noundef %35, i32 noundef 4) #10
  tail call void @exit(i32 noundef 1) #12
  unreachable

read_bytes.exit36:                                ; preds = %31
  %41 = load i32, ptr %32, align 8
  %42 = icmp ugt i32 %41, 131072
  br i1 %42, label %43, label %44

43:                                               ; preds = %read_bytes.exit36
  tail call void (i32, i32, ptr, ...) @pg_log_generic(i32 noundef 4, i32 noundef 0, ptr noundef nonnull @.str.12, ptr noundef %0, i32 noundef %41, i32 noundef 131072) #10
  tail call void @exit(i32 noundef 1) #12
  unreachable

44:                                               ; preds = %read_bytes.exit36
  %45 = load i32, ptr %19, align 8
  %.not30 = icmp eq i32 %45, 0
  br i1 %.not30, label %read_bytes.exit38.thread, label %47

read_bytes.exit38.thread:                         ; preds = %44
  %46 = getelementptr inbounds nuw i8, ptr %3, i64 16
  store i64 12, ptr %46, align 8
  br label %72

47:                                               ; preds = %44
  %48 = zext i32 %45 to i64
  %49 = shl nuw nsw i64 %48, 2
  %50 = tail call ptr @pg_malloc0(i64 noundef %49) #10
  %51 = getelementptr inbounds nuw i8, ptr %3, i64 32
  store ptr %50, ptr %51, align 8
  %52 = load i32, ptr %19, align 8
  %53 = shl i32 %52, 2
  %54 = load i32, ptr %6, align 8
  %55 = zext i32 %53 to i64
  %56 = tail call i64 @read(i32 noundef %54, ptr noundef %50, i64 noundef %55) #10
  %57 = trunc i64 %56 to i32
  %.not.i37 = icmp eq i32 %53, %57
  br i1 %.not.i37, label %read_bytes.exit38, label %58

58:                                               ; preds = %47
  %59 = icmp slt i32 %57, 0
  %60 = load ptr, ptr %3, align 8
  br i1 %59, label %61, label %62

61:                                               ; preds = %58
  tail call void (i32, i32, ptr, ...) @pg_log_generic(i32 noundef 4, i32 noundef 0, ptr noundef nonnull @.str.13, ptr noundef %60) #10
  tail call void @exit(i32 noundef 1) #12
  unreachable

62:                                               ; preds = %58
  tail call void (i32, i32, ptr, ...) @pg_log_generic(i32 noundef 4, i32 noundef 0, ptr noundef nonnull @.str.14, ptr noundef %60, i32 noundef %57, i32 noundef %53) #10
  tail call void @exit(i32 noundef 1) #12
  unreachable

read_bytes.exit38:                                ; preds = %47
  %.pr = load i32, ptr %19, align 8
  %63 = zext i32 %.pr to i64
  %64 = shl nuw nsw i64 %63, 2
  %65 = add nuw nsw i64 %64, 12
  %66 = getelementptr inbounds nuw i8, ptr %3, i64 16
  store i64 %65, ptr %66, align 8
  %.not31 = icmp eq i32 %.pr, 0
  br i1 %.not31, label %72, label %67

67:                                               ; preds = %read_bytes.exit38
  %68 = and i64 %65, 8188
  %.not32 = icmp eq i64 %68, 0
  br i1 %.not32, label %72, label %69

69:                                               ; preds = %67
  %70 = add nuw nsw i64 %64, 8204
  %71 = sub nuw nsw i64 %70, %68
  store i64 %71, ptr %66, align 8
  br label %72

72:                                               ; preds = %read_bytes.exit38.thread, %69, %67, %read_bytes.exit38
  call void @llvm.lifetime.end.p0(i64 4, ptr nonnull %2) #10
  ret ptr %3
}